target datalayout = "e-m:e-p270:32:32-p271:32:32-p272:64:64-i64:64-i128:128-f80:128-n8:16:32:64-S128"
target triple = "x86_64-unknown-linux-gnu"

%struct.ObjectClass = type { ptr, ptr, [4 x ptr], [4 x ptr], ptr, ptr }
%struct.ChardevClass = type { %struct.ObjectClass, i8, i8, ptr, ptr, ptr, ptr, ptr, ptr, ptr, ptr, ptr, ptr, ptr, ptr, ptr, ptr, ptr, ptr }
%struct.DBusVCClass = type { %struct.DBusChardevClass, ptr }
%struct.DBusChardevClass = type { %struct.ChardevClass, ptr }

@.str = private unnamed_addr constant [18 x i8] c"../qemu/ui/dbus.c\00", align 1
@.str.16 = private unnamed_addr constant [1 x i8] zeroinitializer, align 1
@.str.22 = private unnamed_addr constant [5 x i8] c"name\00", align 1
@.str.30 = private unnamed_addr constant [11 x i8] c"chardev-vc\00", align 1
@__func__.DBUS_VC_CLASS = private unnamed_addr constant [14 x i8] c"DBUS_VC_CLASS\00", align 1
@.str.34 = private unnamed_addr constant [15 x i8] c"compat_monitor\00", align 1
@.str.35 = private unnamed_addr constant [23 x i8] c"org.qemu.monitor.hmp.0\00", align 1
@.str.36 = private unnamed_addr constant [7 x i8] c"serial\00", align 1
@.str.37 = private unnamed_addr constant [26 x i8] c"org.qemu.console.serial.0\00", align 1

; Function Attrs: nounwind sspstrong uwtable
define internal ptr @DBUS_VC_CLASS(ptr noundef %klass) #0 {
entry:
  %klass.addr = alloca ptr, align 8
  store ptr %klass, ptr %klass.addr, align 8
  %0 = load ptr, ptr %klass.addr, align 8
  %call = call ptr @object_class_dynamic_cast_assert(ptr noundef %0, ptr noundef @.str.30, ptr noundef @.str, i32 noundef 423, ptr noundef @__func__.DBUS_VC_CLASS)
  ret ptr %call
}

; Function Attrs: nounwind sspstrong uwtable
define internal void @dbus_vc_parse(ptr noundef %opts, ptr noundef %backend, ptr noundef %errp) #0 {
entry:
  %opts.addr = alloca ptr, align 8
  %backend.addr = alloca ptr, align 8
  %errp.addr = alloca ptr, align 8
  %klass = alloca ptr, align 8
  %name = alloca ptr, align 8
  %id = alloca ptr, align 8
  store ptr %opts, ptr %opts.addr, align 8
  store ptr %backend, ptr %backend.addr, align 8
  store ptr %errp, ptr %errp.addr, align 8
  %call = call ptr @object_class_by_name(ptr noundef @.str.30)
  %call1 = call ptr @DBUS_VC_CLASS(ptr noundef %call)
  store ptr %call1, ptr %klass, align 8
  %0 = load ptr, ptr %opts.addr, align 8
  %call2 = call ptr @qemu_opt_get(ptr noundef %0, ptr noundef @.str.22)
  store ptr %call2, ptr %name, align 8
  %1 = load ptr, ptr %opts.addr, align 8
  %call3 = call ptr @qemu_opts_id(ptr noundef %1)
  store ptr %call3, ptr %id, align 8
  %2 = load ptr, ptr %name, align 8
  %cmp = icmp eq ptr %2, null
  br i1 %cmp, label %if.then, label %if.end14

if.then:                                          ; preds = %entry
  %3 = load ptr, ptr %id, align 8
  %call4 = call i32 @g_str_has_prefix(ptr noundef %3, ptr noundef @.str.34)
  %tobool = icmp ne i32 %call4, 0
  br i1 %tobool, label %if.then5, label %if.else

if.then5:                                         ; preds = %if.then
  store ptr @.str.35, ptr %name, align 8
  br label %if.end10

if.else:                                          ; preds = %if.then
  %4 = load ptr, ptr %id, align 8
  %call6 = call i32 @g_str_has_prefix(ptr noundef %4, ptr noundef @.str.36)
  %tobool7 = icmp ne i32 %call6, 0
  br i1 %tobool7, label %if.then8, label %if.else9

if.then8:                                         ; preds = %if.else
  store ptr @.str.37, ptr %name, align 8
  br label %if.end

if.else9:                                         ; preds = %if.else
  store ptr @.str.16, ptr %name, align 8
  br label %if.end

if.end:                                           ; preds = %if.else9, %if.then8
  br label %if.end10

if.end10:                                         ; preds = %if.end, %if.then5
  %5 = load ptr, ptr %opts.addr, align 8
  %6 = load ptr, ptr %name, align 8
  %7 = load ptr, ptr %errp.addr, align 8
  %call11 = call zeroext i1 @qemu_opt_set(ptr noundef %5, ptr noundef @.str.22, ptr noundef %6, ptr noundef %7)
  br i1 %call11, label %if.end13, label %if.then12

if.then12:                                        ; preds = %if.end10
  br label %return

if.end13:                                         ; preds = %if.end10
  br label %if.end14

if.end14:                                         ; preds = %if.end13, %entry
  %8 = load ptr, ptr %klass, align 8
  %parent_parse = getelementptr inbounds %struct.DBusVCClass, ptr %8, i32 0, i32 1
  %9 = load ptr, ptr %parent_parse, align 8
  %10 = load ptr, ptr %opts.addr, align 8
  %11 = load ptr, ptr %backend.addr, align 8
  %12 = load ptr, ptr %errp.addr, align 8
  call void %9(ptr noundef %10, ptr noundef %11, ptr noundef %12)
  br label %return

return:                                           ; preds = %if.end14, %if.then12
  ret void
}