; Function Attrs: nounwind sspstrong uwtable
define internal void @dbus_vc_parse(ptr noundef %opts, ptr noundef %backend, ptr noundef %errp) #0 {
entry:
  %call = tail call ptr @object_class_by_name(ptr noundef nonnull @.str.30) #5
  %call.i = tail call ptr @object_class_dynamic_cast_assert(ptr noundef %call, ptr noundef nonnull @.str.30, ptr noundef nonnull @.str, i32 noundef 423, ptr noundef nonnull @__func__.DBUS_VC_CLASS) #5
  %call2 = tail call ptr @qemu_opt_get(ptr noundef %opts, ptr noundef nonnull @.str.22) #5
  %call3 = tail call ptr @qemu_opts_id(ptr noundef %opts) #5
  %cmp = icmp eq ptr %call2, null
  br i1 %cmp, label %if.then, label %if.end14

if.then:                                          ; preds = %entry
  %call4 = tail call i32 @g_str_has_prefix(ptr noundef %call3, ptr noundef nonnull @.str.34) #5
  %tobool.not = icmp eq i32 %call4, 0
  br i1 %tobool.not, label %if.else, label %if.end10

if.else:                                          ; preds = %if.then
  %call6 = tail call i32 @g_str_has_prefix(ptr noundef %call3, ptr noundef nonnull @.str.36) #5
  %tobool7.not = icmp eq i32 %call6, 0
  %.str.16..str.37 = select i1 %tobool7.not, ptr @.str.16, ptr @.str.37
  br label %if.end10

if.end10:                                         ; preds = %if.else, %if.then
  %name.0 = phi ptr [ @.str.35, %if.then ], [ %.str.16..str.37, %if.else ]
  %call11 = tail call zeroext i1 @qemu_opt_set(ptr noundef %opts, ptr noundef nonnull @.str.22, ptr noundef nonnull %name.0, ptr noundef %errp) #5
  br i1 %call11, label %if.end14, label %return

if.end14:                                         ; preds = %if.end10, %entry
  %parent_parse = getelementptr inbounds nuw i8, ptr %call.i, i64 240
  %0 = load ptr, ptr %parent_parse, align 8
  tail call void %0(ptr noundef %opts, ptr noundef %backend, ptr noundef %errp) #5
  br label %return

return:                                           ; preds = %if.end10, %if.end14
  ret void
}